; Function Attrs: mustprogress nofree norecurse nosync nounwind willreturn memory(argmem: write) uwtable
define void @_ZN5draco26SequentialAttributeEncoderC2Ev(ptr noundef nonnull writeonly align 8 captures(none) dereferenceable(72) initializes((0, 28), (32, 57), (64, 72)) %0) unnamed_addr #3 align 2 personality ptr @__gxx_personality_v0 {
  store ptr getelementptr inbounds nuw inrange(-16, 96) (i8, ptr @_ZTVN5draco26SequentialAttributeEncoderE, i64 16), ptr %0, align 8, !tbaa !3
  %2 = getelementptr inbounds nuw i8, ptr %0, i64 8
  %3 = getelementptr inbounds nuw i8, ptr %0, i64 24
  tail call void @llvm.memset.p0.i64(ptr noundef nonnull align 8 dereferenceable(16) %2, i8 0, i64 16, i1 false)
  store i32 -1, ptr %3, align 8, !tbaa !6
  %4 = getelementptr inbounds nuw i8, ptr %0, i64 32
  %5 = getelementptr inbounds nuw i8, ptr %0, i64 64
  store ptr null, ptr %5, align 8, !tbaa !25
  tail call void @llvm.memset.p0.i64(ptr noundef nonnull align 8 dereferenceable(25) %4, i8 0, i64 25, i1 false)
  ret void
}